Certificate:
    Data:
        Version: 3 (0x2)
        Serial Number:
            9d:95:62:6e:c3:01:fa:dc:25:ff:db:aa:a8:78:67:7b
        Signature Algorithm: sha256WithRSAEncryption
        Issuer: CN=vpnServeur
        Validity
            Not Before: Sep  6 21:44:49 2019 GMT
            Not After : Aug 21 21:44:49 2022 GMT
        Subject: CN=vpn.bankevi.com
        Subject Public Key Info:
            Public Key Algorithm: rsaEncryption
                RSA Public-Key: (2048 bit)
                Modulus:
                    00:b6:4f:1d:a3:69:d7:34:38:af:14:52:dd:95:53:
                    94:b4:9d:20:2d:12:0b:ba:1d:02:8d:19:1a:2d:31:
                    04:eb:3c:f7:bb:97:3a:1b:d7:a1:b8:77:48:9d:2e:
                    e9:58:30:26:26:aa:ab:4a:f1:08:73:87:44:7e:22:
                    db:b2:0a:ab:71:6a:4f:ae:e6:63:f8:88:db:c9:c5:
                    61:09:bf:28:d3:d6:fb:97:fb:3d:02:0b:75:1f:fa:
                    81:f7:a6:2f:fa:c8:39:72:ba:0e:35:08:68:28:a3:
                    67:d3:2e:79:be:db:90:2b:c8:9a:42:1d:54:67:bd:
                    d0:47:1b:71:14:10:27:61:2c:30:15:e2:52:b9:83:
                    25:8a:0e:63:f8:b5:b4:e7:6e:c5:50:94:ce:91:9a:
                    e8:f7:d5:6c:11:ec:c0:57:37:2e:15:44:57:d6:64:
                    ba:e0:be:fd:99:72:df:6d:a0:e5:56:aa:51:77:a0:
                    17:e9:10:43:f4:de:73:fb:2d:07:78:ba:ff:47:f8:
                    14:c2:12:25:40:40:59:8d:ab:f9:ce:8e:21:2c:1c:
                    95:50:96:4a:63:e7:c2:6a:85:51:f4:4a:10:d6:66:
                    af:09:41:4a:59:13:5c:e3:58:07:e5:ea:32:f9:18:
                    95:d7:ab:1e:62:83:61:04:4a:d1:d0:84:7f:8d:4a:
                    67:eb
                Exponent: 65537 (0x10001)
        X509v3 extensions:
            X509v3 Basic Constraints: 
                CA:FALSE
            X509v3 Subject Key Identifier: 
                02:9E:DD:5D:0B:55:21:23:89:A1:70:D5:B2:8E:BB:2C:12:02:7B:B4
            X509v3 Authority Key Identifier: 
                keyid:66:03:21:E6:88:07:E1:EC:11:29:70:81:AD:5B:8D:B3:EB:B3:8E:28
                DirName:/CN=vpnServeur
                serial:67:3A:4F:A0:83:05:7E:5C:26:FC:34:D1:87:54:90:8D:89:44:C1:B5

            X509v3 Extended Key Usage: 
                TLS Web Server Authentication
            X509v3 Key Usage: 
                Digital Signature, Key Encipherment
            X509v3 Subject Alternative Name: 
                DNS:vpn.bankevi.com
    Signature Algorithm: sha256WithRSAEncryption
         17:64:52:f3:e8:6e:80:e9:06:5f:f0:db:66:3c:b9:2f:9f:3a:
         95:65:95:aa:a8:c3:7d:b0:26:f6:a5:94:30:1e:2a:ce:b2:48:
         85:36:05:61:fc:92:ae:02:74:da:78:ca:05:74:14:85:17:8a:
         23:45:9c:76:c9:01:65:60:83:30:85:23:3b:08:95:1f:9f:4d:
         97:eb:a3:db:6e:c9:74:19:3b:88:dc:27:33:db:22:33:d9:b8:
         e1:f3:a5:5d:19:86:4c:68:36:a9:1b:3f:b9:6f:73:11:05:3c:
         3e:16:45:97:3a:1e:1c:46:ad:0a:b9:82:b6:83:85:62:7b:30:
         53:91:bd:93:f1:19:ae:23:dd:27:bf:d2:50:63:6f:f0:c6:50:
         e4:8b:da:77:f3:9a:ee:d3:bd:45:64:ba:8c:da:48:af:31:f9:
         93:cc:92:a1:9e:99:f6:13:58:51:a6:a9:2f:38:6b:91:4a:f5:
         d9:e3:b1:af:29:43:e3:97:52:7f:cc:7c:8e:6c:22:7b:95:6f:
         02:ec:d6:b8:18:4b:09:2a:1f:39:f2:2b:30:c9:5d:df:81:5b:
         ac:d3:a4:83:b5:e9:bb:33:6b:f9:e4:d1:7f:5e:52:96:d0:29:
         14:07:a4:6e:7b:c0:18:34:70:05:38:96:68:28:4e:8f:30:be:
         d6:e9:49:3e
-----BEGIN CERTIFICATE-----
MIIDeDCCAmCgAwIBAgIRAJ2VYm7DAfrcJf/bqqh4Z3swDQYJKoZIhvcNAQELBQAw
FTETMBEGA1UEAwwKdnBuU2VydmV1cjAeFw0xOTA5MDYyMTQ0NDlaFw0yMjA4MjEy
MTQ0NDlaMBoxGDAWBgNVBAMMD3Zwbi5iYW5rZXZpLmNvbTCCASIwDQYJKoZIhvcN
AQEBBQADggEPADCCAQoCggEBALZPHaNp1zQ4rxRS3ZVTlLSdIC0SC7odAo0ZGi0x
BOs897uXOhvXobh3SJ0u6VgwJiaqq0rxCHOHRH4i27IKq3FqT67mY/iI28nFYQm/
KNPW+5f7PQILdR/6gfemL/rIOXK6DjUIaCijZ9Mueb7bkCvImkIdVGe90EcbcRQQ
J2EsMBXiUrmDJYoOY/i1tOduxVCUzpGa6PfVbBHswFc3LhVEV9ZkuuC+/Zly322g
5VaqUXegF+kQQ/Tec/stB3i6/0f4FMISJUBAWY2r+c6OISwclVCWSmPnwmqFUfRK
ENZmrwlBSlkTXONYB+XqMvkYlderHmKDYQRK0dCEf41KZ+sCAwEAAaOBvTCBujAJ
BgNVHRMEAjAAMB0GA1UdDgQWBBQCnt1dC1UhI4mhcNWyjrssEgJ7tDBQBgNVHSME
STBHgBRmAyHmiAfh7BEpcIGtW42z67OOKKEZpBcwFTETMBEGA1UEAwwKdnBuU2Vy
dmV1coIUZzpPoIMFflwm/DTRh1SQjYlEwbUwEwYDVR0lBAwwCgYIKwYBBQUHAwEw
CwYDVR0PBAQDAgWgMBoGA1UdEQQTMBGCD3Zwbi5iYW5rZXZpLmNvbTANBgkqhkiG
9w0BAQsFAAOCAQEAF2RS8+hugOkGX/DbZjy5L586lWWVqqjDfbAm9qWUMB4qzrJI
hTYFYfySrgJ02njKBXQUhReKI0WcdskBZWCDMIUjOwiVH59Nl+uj227JdBk7iNwn
M9siM9m44fOlXRmGTGg2qRs/uW9zEQU8PhZFlzoeHEatCrmCtoOFYnswU5G9k/EZ
riPdJ7/SUGNv8MZQ5Ivad/Oa7tO9RWS6jNpIrzH5k8ySoZ6Z9hNYUaapLzhrkUr1
2eOxrylD45dSf8x8jmwie5VvAuzWuBhLCSofOfIrMMld34FbrNOkg7XpuzNr+eTR
f15SltApFAekbnvAGDRwBTiWaChOjzC+1ulJPg==
-----END CERTIFICATE-----
