Certificate:
    Data:
        Version: 3 (0x2)
        Serial Number:
            aa:5f:91:42:92:fa:30:e1:e1:a3:22:31:e5:78:4a:e4
        Signature Algorithm: sha256WithRSAEncryption
        Issuer: CN=vpnServeur
        Validity
            Not Before: Sep  6 21:49:22 2019 GMT
            Not After : Aug 21 21:49:22 2022 GMT
        Subject: CN=richard
        Subject Public Key Info:
            Public Key Algorithm: rsaEncryption
                RSA Public-Key: (2048 bit)
                Modulus:
                    00:ae:11:c5:87:b6:f5:49:f2:c1:b8:1f:09:17:0d:
                    57:3d:2d:53:9f:b2:cf:74:68:98:b8:23:bc:cb:82:
                    b2:2a:79:9f:62:16:da:49:88:93:f8:a0:13:20:b1:
                    de:ee:ae:53:5d:da:34:5c:5b:f4:82:1e:4d:fe:d1:
                    d3:c0:23:8a:e9:f5:a4:63:5e:a5:d3:14:8c:2a:11:
                    40:3e:75:52:09:77:1a:72:dc:6a:83:3b:92:27:d7:
                    78:da:a9:56:de:07:e0:17:bb:63:c8:76:27:4f:61:
                    12:ad:c1:fe:e4:7d:63:4c:a0:6f:15:d9:f6:3f:92:
                    1f:bd:81:68:fb:06:90:f7:02:de:7e:c8:db:6d:d7:
                    b5:a2:11:4e:9f:15:e0:ff:62:c2:00:71:d4:d8:b0:
                    e3:bb:2e:ae:d1:43:ad:cf:e7:b8:94:8b:13:e7:4b:
                    33:21:3f:29:7a:c4:04:dd:d4:af:e2:bc:f9:ad:fa:
                    46:f0:55:9c:34:df:a5:1b:b0:39:bd:bb:44:ef:09:
                    c7:ac:25:4c:d3:bc:88:08:d2:20:e7:86:00:5e:41:
                    43:56:fa:3b:67:04:f8:d9:35:94:67:31:18:ab:1a:
                    5f:33:0e:2e:55:b6:8f:9e:5a:ff:ce:37:e3:27:20:
                    26:71:50:58:e6:6b:e4:01:6b:c9:9e:49:07:b5:a3:
                    b1:85
                Exponent: 65537 (0x10001)
        X509v3 extensions:
            X509v3 Basic Constraints: 
                CA:FALSE
            X509v3 Subject Key Identifier: 
                59:A3:67:AF:3C:C3:9A:05:F4:8C:49:04:B2:CE:33:E1:5B:44:87:A6
            X509v3 Authority Key Identifier: 
                keyid:66:03:21:E6:88:07:E1:EC:11:29:70:81:AD:5B:8D:B3:EB:B3:8E:28
                DirName:/CN=vpnServeur
                serial:67:3A:4F:A0:83:05:7E:5C:26:FC:34:D1:87:54:90:8D:89:44:C1:B5

            X509v3 Extended Key Usage: 
                TLS Web Client Authentication
            X509v3 Key Usage: 
                Digital Signature
    Signature Algorithm: sha256WithRSAEncryption
         7e:52:4a:25:87:ae:3a:ec:fc:cc:18:3c:c4:3e:e7:8b:16:6b:
         c8:1d:6b:93:a1:1f:13:72:cd:8f:fa:60:9f:14:df:90:bf:b1:
         1b:a5:79:44:56:f4:33:e8:2c:42:4c:81:62:90:94:9e:a8:be:
         59:28:0a:09:98:42:59:9a:b7:2f:bc:10:af:3d:10:c6:a1:f3:
         14:0b:78:4f:f1:c7:3d:38:25:a8:ed:8a:ae:e5:e2:50:70:7d:
         04:14:9b:f6:9f:ae:fd:8b:4c:f3:ca:25:12:70:47:a8:bc:8a:
         b4:f4:fe:a3:ef:82:1e:9c:8b:7d:20:53:db:10:2e:30:ad:60:
         64:31:ee:ac:0b:af:97:6f:2d:f2:ae:03:3b:52:f2:2b:fd:b1:
         a9:ed:7b:79:f7:04:75:04:70:24:32:9d:a2:92:27:76:4c:d6:
         46:e2:dd:ae:99:03:4e:5e:4f:9e:66:e0:71:65:0c:5e:b9:48:
         dd:88:46:a2:2e:e9:77:d2:b7:d6:4d:29:d5:77:7c:09:bb:9b:
         2a:52:38:9f:78:ad:e5:3a:9b:92:94:97:d6:d2:c4:ec:7b:d6:
         0d:92:0f:ab:69:f0:c3:00:35:b5:35:b7:18:fc:2b:be:f3:c2:
         1f:a5:05:3f:d5:c9:32:49:b7:94:a6:b9:ad:67:70:e7:7a:55:
         f9:3d:6a:68
-----BEGIN CERTIFICATE-----
MIIDVDCCAjygAwIBAgIRAKpfkUKS+jDh4aMiMeV4SuQwDQYJKoZIhvcNAQELBQAw
FTETMBEGA1UEAwwKdnBuU2VydmV1cjAeFw0xOTA5MDYyMTQ5MjJaFw0yMjA4MjEy
MTQ5MjJaMBIxEDAOBgNVBAMMB3JpY2hhcmQwggEiMA0GCSqGSIb3DQEBAQUAA4IB
DwAwggEKAoIBAQCuEcWHtvVJ8sG4HwkXDVc9LVOfss90aJi4I7zLgrIqeZ9iFtpJ
iJP4oBMgsd7urlNd2jRcW/SCHk3+0dPAI4rp9aRjXqXTFIwqEUA+dVIJdxpy3GqD
O5In13jaqVbeB+AXu2PIdidPYRKtwf7kfWNMoG8V2fY/kh+9gWj7BpD3At5+yNtt
17WiEU6fFeD/YsIAcdTYsOO7Lq7RQ63P57iUixPnSzMhPyl6xATd1K/ivPmt+kbw
VZw036UbsDm9u0TvCcesJUzTvIgI0iDnhgBeQUNW+jtnBPjZNZRnMRirGl8zDi5V
to+eWv/ON+MnICZxUFjma+QBa8meSQe1o7GFAgMBAAGjgaEwgZ4wCQYDVR0TBAIw
ADAdBgNVHQ4EFgQUWaNnrzzDmgX0jEkEss4z4VtEh6YwUAYDVR0jBEkwR4AUZgMh
5ogH4ewRKXCBrVuNs+uzjiihGaQXMBUxEzARBgNVBAMMCnZwblNlcnZldXKCFGc6
T6CDBX5cJvw00YdUkI2JRMG1MBMGA1UdJQQMMAoGCCsGAQUFBwMCMAsGA1UdDwQE
AwIHgDANBgkqhkiG9w0BAQsFAAOCAQEAflJKJYeuOuz8zBg8xD7nixZryB1rk6Ef
E3LNj/pgnxTfkL+xG6V5RFb0M+gsQkyBYpCUnqi+WSgKCZhCWZq3L7wQrz0QxqHz
FAt4T/HHPTglqO2KruXiUHB9BBSb9p+u/YtM88olEnBHqLyKtPT+o++CHpyLfSBT
2xAuMK1gZDHurAuvl28t8q4DO1LyK/2xqe17efcEdQRwJDKdopIndkzWRuLdrpkD
Tl5PnmbgcWUMXrlI3YhGoi7pd9K31k0p1Xd8CbubKlI4n3it5TqbkpSX1tLE7HvW
DZIPq2nwwwA1tTW3GPwrvvPCH6UFP9XJMkm3lKa5rWdw53pV+T1qaA==
-----END CERTIFICATE-----
